target datalayout = "e-m:e-p270:32:32-p271:32:32-p272:64:64-i64:64-i128:128-f80:128-n8:16:32:64-S128"
target triple = "x86_64-pc-linux-gnu"

%struct._zend_executor_globals = type { %struct._zval_struct, %struct._zval_struct, [32 x ptr], ptr, ptr, %struct._zend_array, %struct._zend_array, ptr, i32, i8, %struct._zval_struct, i32, ptr, ptr, ptr, ptr, ptr, ptr, i64, ptr, ptr, i32, ptr, i32, i64, i32, i32, i32, i8, i8, %struct.zend_atomic_bool_s, %struct.zend_atomic_bool_s, ptr, i64, ptr, ptr, %struct._zend_array, %struct._zend_array, i32, i8, %struct._zval_struct, %struct._zval_struct, %struct._zend_stack, %struct._zend_stack, %struct._zend_stack, ptr, i32, i32, i64, ptr, ptr, ptr, %struct._zend_objects_store, %struct._zend_lazy_objects_store, ptr, ptr, ptr, [3 x %struct._zend_op], ptr, i8, i8, i64, i32, i32, ptr, [16 x %struct._HashTableIterator], ptr, %union._zend_function, %struct._zend_op, %struct._zend_array, i64, %struct.zend_get_gc_buffer, ptr, ptr, ptr, i64, i8, i32, ptr, ptr, i64, %struct._zend_call_stack, i64, i64, %struct._zend_strtod_state, [6 x ptr] }
%struct.zend_atomic_bool_s = type { i8 }
%struct._zval_struct = type { %union._zend_value, %union.anon, %union.anon.2 }
%union._zend_value = type { i64 }
%union.anon = type { i32 }
%union.anon.2 = type { i32 }
%struct._zend_stack = type { i32, i32, i32, ptr }
%struct._zend_objects_store = type { ptr, i32, i32, i32 }
%struct._zend_lazy_objects_store = type { %struct._zend_array }
%struct._HashTableIterator = type { ptr, i32, i32 }
%union._zend_function = type { %struct._zend_op_array }
%struct._zend_op_array = type { i8, [3 x i8], i32, ptr, ptr, ptr, i32, i32, ptr, ptr, ptr, ptr, i32, ptr, i32, i32, i32, ptr, ptr, ptr, ptr, ptr, i32, i32, ptr, ptr, ptr, i32, i32, i32, i32, ptr, ptr, [6 x ptr] }
%struct._zend_op = type { ptr, %union._znode_op, %union._znode_op, %union._znode_op, i32, i32, i8, i8, i8, i8 }
%union._znode_op = type { i32 }
%struct._zend_array = type { %struct._zend_refcounted_h, %union.anon.4, i32, %union.anon.6, i32, i32, i32, i32, i64, ptr }
%struct._zend_refcounted_h = type { i32, %union.anon.3 }
%union.anon.3 = type { i32 }
%union.anon.4 = type { i32 }
%union.anon.6 = type { ptr }
%struct.zend_get_gc_buffer = type { ptr, ptr, ptr }
%struct._zend_call_stack = type { ptr, i64 }
%struct._zend_strtod_state = type { [8 x ptr], ptr, ptr }
%struct._zend_fiber_context = type { ptr, ptr, ptr, ptr, ptr, i32, ptr, [6 x ptr] }
%struct._zend_fiber = type { %struct._zend_object, i8, %struct._zend_fiber_context, ptr, ptr, %struct._zend_fcall_info, %struct._zend_fcall_info_cache, ptr, ptr, ptr, %struct._zval_struct }
%struct._zend_object = type { %struct._zend_refcounted_h, i32, i32, ptr, ptr, ptr, [1 x %struct._zval_struct] }
%struct._zend_fcall_info = type { i64, %struct._zval_struct, ptr, ptr, ptr, i32, ptr }
%struct._zend_fcall_info_cache = type { ptr, ptr, ptr, ptr, ptr }
%struct._zend_execute_data = type { ptr, ptr, ptr, ptr, %struct._zval_struct, ptr, ptr, ptr, ptr }
%struct.anon.0 = type { i8, i8, %union.anon.1 }
%union.anon.1 = type { i16 }
%struct._zend_refcounted = type { %struct._zend_refcounted_h }

@executor_globals = external global %struct._zend_executor_globals, align 8
@zend_ce_fiber_error = internal global ptr null, align 8
@.str.5 = private unnamed_addr constant [30 x i8] c"Cannot call constructor twice\00", align 1

; Function Attrs: alwaysinline nounwind uwtable
define internal i32 @zend_gc_addref(ptr noundef %0) #6 {
  %2 = alloca ptr, align 8
  store ptr %0, ptr %2, align 8, !tbaa !160
  br label %3

3:                                                ; preds = %1
  br label %4

4:                                                ; preds = %3
  %5 = load ptr, ptr %2, align 8, !tbaa !160
  %6 = getelementptr inbounds nuw %struct._zend_refcounted_h, ptr %5, i32 0, i32 0
  %7 = load i32, ptr %6, align 4, !tbaa !162
  %8 = add i32 %7, 1
  store i32 %8, ptr %6, align 4, !tbaa !162
  ret i32 %8
}

; Function Attrs: alwaysinline nounwind uwtable
define internal i32 @zval_addref_p(ptr noundef %0) #6 {
  %2 = alloca ptr, align 8
  store ptr %0, ptr %2, align 8, !tbaa !94
  %3 = load ptr, ptr %2, align 8, !tbaa !94
  %4 = getelementptr inbounds nuw %struct._zval_struct, ptr %3, i32 0, i32 1
  %5 = getelementptr inbounds nuw %struct.anon.0, ptr %4, i32 0, i32 1
  %6 = load i8, ptr %5, align 1, !tbaa !61
  %7 = zext i8 %6 to i32
  %8 = icmp ne i32 %7, 0
  call void @llvm.assume(i1 %8)
  %9 = load ptr, ptr %2, align 8, !tbaa !94
  %10 = getelementptr inbounds nuw %struct._zval_struct, ptr %9, i32 0, i32 0
  %11 = load ptr, ptr %10, align 8, !tbaa !61
  %12 = getelementptr inbounds nuw %struct._zend_refcounted, ptr %11, i32 0, i32 0
  %13 = call i32 @zend_gc_addref(ptr noundef %12)
  ret i32 %13
}

; Function Attrs: alwaysinline nounwind uwtable
define internal zeroext i8 @zval_get_type(ptr noundef %0) #6 {
  %2 = alloca ptr, align 8
  store ptr %0, ptr %2, align 8, !tbaa !94
  %3 = load ptr, ptr %2, align 8, !tbaa !94
  %4 = getelementptr inbounds nuw %struct._zval_struct, ptr %3, i32 0, i32 1
  %5 = getelementptr inbounds nuw %struct.anon.0, ptr %4, i32 0, i32 0
  %6 = load i8, ptr %5, align 8, !tbaa !61
  ret i8 %6
}

; Function Attrs: alwaysinline nounwind uwtable
define internal zeroext i1 @zend_parse_arg_func(ptr noundef %0, ptr noundef %1, ptr noundef %2, i1 noundef zeroext %3, ptr noundef %4, i1 noundef zeroext %5) #6 {
  %7 = alloca i1, align 1
  %8 = alloca ptr, align 8
  %9 = alloca ptr, align 8
  %10 = alloca ptr, align 8
  %11 = alloca i8, align 1
  %12 = alloca ptr, align 8
  %13 = alloca i8, align 1
  store ptr %0, ptr %8, align 8, !tbaa !94
  store ptr %1, ptr %9, align 8, !tbaa !135
  store ptr %2, ptr %10, align 8, !tbaa !137
  %14 = zext i1 %3 to i8
  store i8 %14, ptr %11, align 1, !tbaa !124
  store ptr %4, ptr %12, align 8, !tbaa !139
  %15 = zext i1 %5 to i8
  store i8 %15, ptr %13, align 1, !tbaa !124
  %16 = load i8, ptr %11, align 1, !tbaa !124, !range !125, !noundef !126
  %17 = trunc i8 %16 to i1
  br i1 %17, label %18, label %35

18:                                               ; preds = %6
  %19 = load ptr, ptr %8, align 8, !tbaa !94
  %20 = call zeroext i8 @zval_get_type(ptr noundef %19)
  %21 = zext i8 %20 to i32
  %22 = icmp eq i32 %21, 1
  %23 = xor i1 %22, true
  %24 = xor i1 %23, true
  %25 = zext i1 %24 to i32
  %26 = sext i32 %25 to i64
  %27 = call i64 @llvm.expect.i64(i64 %26, i64 0)
  %28 = icmp ne i64 %27, 0
  br i1 %28, label %29, label %35

29:                                               ; preds = %18
  %30 = load ptr, ptr %9, align 8, !tbaa !135
  %31 = getelementptr inbounds nuw %struct._zend_fcall_info, ptr %30, i32 0, i32 0
  store i64 0, ptr %31, align 8, !tbaa !141
  %32 = load ptr, ptr %10, align 8, !tbaa !137
  %33 = getelementptr inbounds nuw %struct._zend_fcall_info_cache, ptr %32, i32 0, i32 0
  store ptr null, ptr %33, align 8, !tbaa !142
  %34 = load ptr, ptr %12, align 8, !tbaa !139
  store ptr null, ptr %34, align 8, !tbaa !130
  br label %50

35:                                               ; preds = %18, %6
  %36 = load ptr, ptr %8, align 8, !tbaa !94
  %37 = load ptr, ptr %9, align 8, !tbaa !135
  %38 = load ptr, ptr %10, align 8, !tbaa !137
  %39 = load ptr, ptr %12, align 8, !tbaa !139
  %40 = call i32 @zend_fcall_info_init(ptr noundef %36, i32 noundef 0, ptr noundef %37, ptr noundef %38, ptr noundef null, ptr noundef %39)
  %41 = icmp ne i32 %40, 0
  %42 = xor i1 %41, true
  %43 = xor i1 %42, true
  %44 = zext i1 %43 to i32
  %45 = sext i32 %44 to i64
  %46 = call i64 @llvm.expect.i64(i64 %45, i64 0)
  %47 = icmp ne i64 %46, 0
  br i1 %47, label %48, label %49

48:                                               ; preds = %35
  store i1 false, ptr %7, align 1
  br label %56

49:                                               ; preds = %35
  br label %50

50:                                               ; preds = %49, %29
  %51 = load i8, ptr %13, align 1, !tbaa !124, !range !125, !noundef !126
  %52 = trunc i8 %51 to i1
  br i1 %52, label %53, label %55

53:                                               ; preds = %50
  %54 = load ptr, ptr %10, align 8, !tbaa !137
  call void @zend_release_fcall_info_cache(ptr noundef %54)
  br label %55

55:                                               ; preds = %53, %50
  store i1 true, ptr %7, align 1
  br label %56

56:                                               ; preds = %55, %48
  %57 = load i1, ptr %7, align 1
  ret i1 %57
}

; Function Attrs: nounwind uwtable
define hidden void @zim_Fiber___construct(ptr noundef %0, ptr noundef %1) #0 {
  %3 = alloca ptr, align 8
  %4 = alloca ptr, align 8
  %5 = alloca %struct._zend_fcall_info, align 8
  %6 = alloca %struct._zend_fcall_info_cache, align 8
  %7 = alloca i32, align 4
  %8 = alloca i32, align 4
  %9 = alloca i32, align 4
  %10 = alloca i32, align 4
  %11 = alloca i32, align 4
  %12 = alloca ptr, align 8
  %13 = alloca ptr, align 8
  %14 = alloca i32, align 4
  %15 = alloca ptr, align 8
  %16 = alloca i8, align 1
  %17 = alloca i8, align 1
  %18 = alloca i32, align 4
  %19 = alloca i32, align 4
  %20 = alloca ptr, align 8
  %21 = alloca ptr, align 8
  store ptr %0, ptr %3, align 8, !tbaa !127
  store ptr %1, ptr %4, align 8, !tbaa !94
  call void @llvm.lifetime.start.p0(i64 64, ptr %5) #18
  call void @llvm.lifetime.start.p0(i64 40, ptr %6) #18
  br label %22

22:                                               ; preds = %2
  call void @llvm.lifetime.start.p0(i64 4, ptr %7) #18
  store i32 0, ptr %7, align 4, !tbaa !48
  call void @llvm.lifetime.start.p0(i64 4, ptr %8) #18
  store i32 1, ptr %8, align 4, !tbaa !48
  call void @llvm.lifetime.start.p0(i64 4, ptr %9) #18
  store i32 1, ptr %9, align 4, !tbaa !48
  call void @llvm.lifetime.start.p0(i64 4, ptr %10) #18
  %23 = load ptr, ptr %3, align 8, !tbaa !127
  %24 = getelementptr inbounds nuw %struct._zend_execute_data, ptr %23, i32 0, i32 4
  %25 = getelementptr inbounds nuw %struct._zval_struct, ptr %24, i32 0, i32 2
  %26 = load i32, ptr %25, align 4, !tbaa !61
  store i32 %26, ptr %10, align 4, !tbaa !48
  call void @llvm.lifetime.start.p0(i64 4, ptr %11) #18
  store i32 0, ptr %11, align 4, !tbaa !48
  call void @llvm.lifetime.start.p0(i64 8, ptr %12) #18
  call void @llvm.lifetime.start.p0(i64 8, ptr %13) #18
  store ptr null, ptr %13, align 8, !tbaa !94
  call void @llvm.lifetime.start.p0(i64 4, ptr %14) #18
  store i32 0, ptr %14, align 4, !tbaa !48
  call void @llvm.lifetime.start.p0(i64 8, ptr %15) #18
  store ptr null, ptr %15, align 8, !tbaa !130
  call void @llvm.lifetime.start.p0(i64 1, ptr %16) #18
  store i8 0, ptr %16, align 1, !tbaa !124
  call void @llvm.lifetime.start.p0(i64 1, ptr %17) #18
  store i8 0, ptr %17, align 1, !tbaa !124
  call void @llvm.lifetime.start.p0(i64 4, ptr %18) #18
  store i32 0, ptr %18, align 4, !tbaa !48
  br label %27

27:                                               ; preds = %22
  %28 = load i32, ptr %10, align 4, !tbaa !48
  %29 = load i32, ptr %8, align 4, !tbaa !48
  %30 = icmp ult i32 %28, %29
  %31 = xor i1 %30, true
  %32 = xor i1 %31, true
  %33 = zext i1 %32 to i32
  %34 = sext i32 %33 to i64
  %35 = call i64 @llvm.expect.i64(i64 %34, i64 0)
  %36 = icmp ne i64 %35, 0
  br i1 %36, label %47, label %37

37:                                               ; preds = %27
  %38 = load i32, ptr %10, align 4, !tbaa !48
  %39 = load i32, ptr %9, align 4, !tbaa !48
  %40 = icmp ugt i32 %38, %39
  %41 = xor i1 %40, true
  %42 = xor i1 %41, true
  %43 = zext i1 %42 to i32
  %44 = sext i32 %43 to i64
  %45 = call i64 @llvm.expect.i64(i64 %44, i64 0)
  %46 = icmp ne i64 %45, 0
  br i1 %46, label %47, label %50

47:                                               ; preds = %37, %27
  %48 = load i32, ptr %8, align 4, !tbaa !48
  %49 = load i32, ptr %9, align 4, !tbaa !48
  call void @zend_wrong_parameters_count_error(i32 noundef %48, i32 noundef %49)
  store i32 1, ptr %18, align 4, !tbaa !48
  br label %118

50:                                               ; preds = %37
  %51 = load ptr, ptr %3, align 8, !tbaa !127
  %52 = getelementptr inbounds %struct._zval_struct, ptr %51, i64 4
  store ptr %52, ptr %12, align 8, !tbaa !94
  %53 = load i32, ptr %11, align 4, !tbaa !48
  %54 = add i32 %53, 1
  store i32 %54, ptr %11, align 4, !tbaa !48
  %55 = load i32, ptr %11, align 4, !tbaa !48
  %56 = load i32, ptr %8, align 4, !tbaa !48
  %57 = icmp ule i32 %55, %56
  br i1 %57, label %63, label %58

58:                                               ; preds = %50
  %59 = load i8, ptr %17, align 1, !tbaa !124, !range !125, !noundef !126
  %60 = trunc i8 %59 to i1
  %61 = zext i1 %60 to i32
  %62 = icmp eq i32 %61, 1
  br label %63

63:                                               ; preds = %58, %50
  %64 = phi i1 [ true, %50 ], [ %62, %58 ]
  call void @llvm.assume(i1 %64)
  %65 = load i32, ptr %11, align 4, !tbaa !48
  %66 = load i32, ptr %8, align 4, !tbaa !48
  %67 = icmp ugt i32 %65, %66
  br i1 %67, label %73, label %68

68:                                               ; preds = %63
  %69 = load i8, ptr %17, align 1, !tbaa !124, !range !125, !noundef !126
  %70 = trunc i8 %69 to i1
  %71 = zext i1 %70 to i32
  %72 = icmp eq i32 %71, 0
  br label %73

73:                                               ; preds = %68, %63
  %74 = phi i1 [ true, %63 ], [ %72, %68 ]
  call void @llvm.assume(i1 %74)
  %75 = load i8, ptr %17, align 1, !tbaa !124, !range !125, !noundef !126
  %76 = trunc i8 %75 to i1
  br i1 %76, label %77, label %89

77:                                               ; preds = %73
  %78 = load i32, ptr %11, align 4, !tbaa !48
  %79 = load i32, ptr %10, align 4, !tbaa !48
  %80 = icmp ugt i32 %78, %79
  %81 = xor i1 %80, true
  %82 = xor i1 %81, true
  %83 = zext i1 %82 to i32
  %84 = sext i32 %83 to i64
  %85 = call i64 @llvm.expect.i64(i64 %84, i64 0)
  %86 = icmp ne i64 %85, 0
  br i1 %86, label %87, label %88

87:                                               ; preds = %77
  br label %118

88:                                               ; preds = %77
  br label %89

89:                                               ; preds = %88, %73
  %90 = load ptr, ptr %12, align 8, !tbaa !94
  %91 = getelementptr inbounds nuw %struct._zval_struct, ptr %90, i32 1
  store ptr %91, ptr %12, align 8, !tbaa !94
  %92 = load ptr, ptr %12, align 8, !tbaa !94
  store ptr %92, ptr %13, align 8, !tbaa !94
  %93 = load ptr, ptr %13, align 8, !tbaa !94
  %94 = call zeroext i1 @zend_parse_arg_func(ptr noundef %93, ptr noundef %5, ptr noundef %6, i1 noundef zeroext false, ptr noundef %15, i1 noundef zeroext true)
  %95 = xor i1 %94, true
  %96 = xor i1 %95, true
  %97 = xor i1 %96, true
  %98 = zext i1 %97 to i32
  %99 = sext i32 %98 to i64
  %100 = call i64 @llvm.expect.i64(i64 %99, i64 0)
  %101 = icmp ne i64 %100, 0
  br i1 %101, label %102, label %108

102:                                              ; preds = %89
  %103 = load ptr, ptr %15, align 8, !tbaa !130
  %104 = icmp ne ptr %103, null
  br i1 %104, label %106, label %105

105:                                              ; preds = %102
  store i32 12, ptr %14, align 4, !tbaa !48
  store i32 9, ptr %18, align 4, !tbaa !48
  br label %107

106:                                              ; preds = %102
  store i32 2, ptr %18, align 4, !tbaa !48
  br label %107

107:                                              ; preds = %106, %105
  br label %118

108:                                              ; preds = %89
  %109 = load i32, ptr %11, align 4, !tbaa !48
  %110 = load i32, ptr %9, align 4, !tbaa !48
  %111 = icmp eq i32 %109, %110
  br i1 %111, label %115, label %112

112:                                              ; preds = %108
  %113 = load i32, ptr %9, align 4, !tbaa !48
  %114 = icmp eq i32 %113, -1
  br label %115

115:                                              ; preds = %112, %108
  %116 = phi i1 [ true, %108 ], [ %114, %112 ]
  call void @llvm.assume(i1 %116)
  br label %117

117:                                              ; preds = %115
  br label %118

118:                                              ; preds = %117, %107, %87, %47
  %119 = load i32, ptr %18, align 4, !tbaa !48
  %120 = icmp ne i32 %119, 0
  %121 = xor i1 %120, true
  %122 = xor i1 %121, true
  %123 = zext i1 %122 to i32
  %124 = sext i32 %123 to i64
  %125 = call i64 @llvm.expect.i64(i64 %124, i64 0)
  %126 = icmp ne i64 %125, 0
  br i1 %126, label %127, label %133

127:                                              ; preds = %118
  %128 = load i32, ptr %18, align 4, !tbaa !48
  %129 = load i32, ptr %11, align 4, !tbaa !48
  %130 = load ptr, ptr %15, align 8, !tbaa !130
  %131 = load i32, ptr %14, align 4, !tbaa !48
  %132 = load ptr, ptr %13, align 8, !tbaa !94
  call void @zend_wrong_parameter_error(i32 noundef %128, i32 noundef %129, ptr noundef %130, i32 noundef %131, ptr noundef %132)
  store i32 1, ptr %19, align 4
  br label %134

133:                                              ; preds = %118
  store i32 0, ptr %19, align 4
  br label %134

134:                                              ; preds = %133, %127
  call void @llvm.lifetime.end.p0(i64 4, ptr %18) #18
  call void @llvm.lifetime.end.p0(i64 1, ptr %17) #18
  call void @llvm.lifetime.end.p0(i64 1, ptr %16) #18
  call void @llvm.lifetime.end.p0(i64 8, ptr %15) #18
  call void @llvm.lifetime.end.p0(i64 4, ptr %14) #18
  call void @llvm.lifetime.end.p0(i64 8, ptr %13) #18
  call void @llvm.lifetime.end.p0(i64 8, ptr %12) #18
  call void @llvm.lifetime.end.p0(i64 4, ptr %11) #18
  call void @llvm.lifetime.end.p0(i64 4, ptr %10) #18
  call void @llvm.lifetime.end.p0(i64 4, ptr %9) #18
  call void @llvm.lifetime.end.p0(i64 4, ptr %8) #18
  call void @llvm.lifetime.end.p0(i64 4, ptr %7) #18
  %135 = load i32, ptr %19, align 4
  switch i32 %135, label %192 [
    i32 0, label %136
  ]

136:                                              ; preds = %134
  br label %137

137:                                              ; preds = %136
  br label %138

138:                                              ; preds = %137
  call void @llvm.lifetime.start.p0(i64 8, ptr %20) #18
  %139 = load ptr, ptr %3, align 8, !tbaa !127
  %140 = getelementptr inbounds nuw %struct._zend_execute_data, ptr %139, i32 0, i32 4
  %141 = getelementptr inbounds nuw %struct._zval_struct, ptr %140, i32 0, i32 0
  %142 = load ptr, ptr %141, align 8, !tbaa !61
  store ptr %142, ptr %20, align 8, !tbaa !93
  %143 = load ptr, ptr %20, align 8, !tbaa !93
  %144 = getelementptr inbounds nuw %struct._zend_fiber, ptr %143, i32 0, i32 2
  %145 = getelementptr inbounds nuw %struct._zend_fiber_context, ptr %144, i32 0, i32 5
  %146 = load i32, ptr %145, align 8, !tbaa !95
  %147 = icmp ne i32 %146, 0
  br i1 %147, label %155, label %148

148:                                              ; preds = %138
  %149 = load ptr, ptr %20, align 8, !tbaa !93
  %150 = getelementptr inbounds nuw %struct._zend_fiber, ptr %149, i32 0, i32 5
  %151 = getelementptr inbounds nuw %struct._zend_fcall_info, ptr %150, i32 0, i32 1
  %152 = call zeroext i8 @zval_get_type(ptr noundef %151)
  %153 = zext i8 %152 to i32
  %154 = icmp ne i32 %153, 0
  br label %155

155:                                              ; preds = %148, %138
  %156 = phi i1 [ true, %138 ], [ %154, %148 ]
  %157 = xor i1 %156, true
  %158 = xor i1 %157, true
  %159 = zext i1 %158 to i32
  %160 = sext i32 %159 to i64
  %161 = call i64 @llvm.expect.i64(i64 %160, i64 0)
  %162 = icmp ne i64 %161, 0
  br i1 %162, label %163, label %170

163:                                              ; preds = %155
  %164 = load ptr, ptr @zend_ce_fiber_error, align 8, !tbaa !102
  call void (ptr, ptr, ...) @zend_throw_error(ptr noundef %164, ptr noundef @.str.5)
  br label %165

165:                                              ; preds = %163
  %166 = load ptr, ptr getelementptr inbounds nuw (%struct._zend_executor_globals, ptr @executor_globals, i32 0, i32 54), align 8, !tbaa !118
  %167 = icmp ne ptr %166, null
  call void @llvm.assume(i1 %167)
  store i32 1, ptr %19, align 4
  br label %191

168:                                              ; No predecessors!
  br label %169

169:                                              ; preds = %168
  br label %170

170:                                              ; preds = %169, %155
  %171 = load ptr, ptr %20, align 8, !tbaa !93
  %172 = getelementptr inbounds nuw %struct._zend_fiber, ptr %171, i32 0, i32 5
  call void @llvm.memcpy.p0.p0.i64(ptr align 8 %172, ptr align 8 %5, i64 64, i1 false), !tbaa.struct !131
  %173 = load ptr, ptr %20, align 8, !tbaa !93
  %174 = getelementptr inbounds nuw %struct._zend_fiber, ptr %173, i32 0, i32 6
  call void @llvm.memcpy.p0.p0.i64(ptr align 8 %174, ptr align 8 %6, i64 40, i1 false), !tbaa.struct !133
  br label %175

175:                                              ; preds = %170
  call void @llvm.lifetime.start.p0(i64 8, ptr %21) #18
  %176 = load ptr, ptr %20, align 8, !tbaa !93
  %177 = getelementptr inbounds nuw %struct._zend_fiber, ptr %176, i32 0, i32 5
  %178 = getelementptr inbounds nuw %struct._zend_fcall_info, ptr %177, i32 0, i32 1
  store ptr %178, ptr %21, align 8, !tbaa !94
  %179 = load ptr, ptr %21, align 8, !tbaa !94
  %180 = getelementptr inbounds nuw %struct._zval_struct, ptr %179, i32 0, i32 1
  %181 = getelementptr inbounds nuw %struct.anon.0, ptr %180, i32 0, i32 1
  %182 = load i8, ptr %181, align 1, !tbaa !61
  %183 = zext i8 %182 to i32
  %184 = icmp ne i32 %183, 0
  br i1 %184, label %185, label %188

185:                                              ; preds = %175
  %186 = load ptr, ptr %21, align 8, !tbaa !94
  %187 = call i32 @zval_addref_p(ptr noundef %186)
  br label %188

188:                                              ; preds = %185, %175
  call void @llvm.lifetime.end.p0(i64 8, ptr %21) #18
  br label %189

189:                                              ; preds = %188
  br label %190

190:                                              ; preds = %189
  store i32 0, ptr %19, align 4
  br label %191

191:                                              ; preds = %190, %165
  call void @llvm.lifetime.end.p0(i64 8, ptr %20) #18
  br label %192

192:                                              ; preds = %191, %134
  call void @llvm.lifetime.end.p0(i64 40, ptr %6) #18
  call void @llvm.lifetime.end.p0(i64 64, ptr %5) #18
  %193 = load i32, ptr %19, align 4
  switch i32 %193, label %195 [
    i32 0, label %194
    i32 1, label %194
  ]

194:                                              ; preds = %192, %192
  ret void

195:                                              ; preds = %192
  unreachable
}