; Function Attrs: nounwind uwtable
define hidden void @zim_Fiber___construct(ptr noundef %0, ptr readnone captures(none) %1) #7 {
  %3 = alloca %struct._zend_fcall_info, align 8
  %4 = alloca %struct._zend_fcall_info_cache, align 8
  %5 = alloca ptr, align 8
  call void @llvm.lifetime.start.p0(i64 64, ptr nonnull %3) #22
  call void @llvm.lifetime.start.p0(i64 40, ptr nonnull %4) #22
  %6 = getelementptr inbounds nuw i8, ptr %0, i64 32
  %7 = getelementptr inbounds nuw i8, ptr %0, i64 44
  %8 = load i32, ptr %7, align 4, !tbaa !56
  call void @llvm.lifetime.start.p0(i64 8, ptr nonnull %5) #22
  store ptr null, ptr %5, align 8, !tbaa !126
  %cond = icmp eq i32 %8, 1
  br i1 %cond, label %10, label %9, !prof !127

9:                                                ; preds = %2
  tail call void @zend_wrong_parameters_count_error(i32 noundef 1, i32 noundef 1) #22
  br label %14

10:                                               ; preds = %2
  %11 = getelementptr inbounds nuw i8, ptr %0, i64 80
  %12 = call i32 @zend_fcall_info_init(ptr noundef nonnull %11, i32 noundef 0, ptr noundef nonnull %3, ptr noundef nonnull %4, ptr noundef null, ptr noundef nonnull %5) #22
  %.not.i = icmp eq i32 %12, 0
  br i1 %.not.i, label %.critedge, label %zend_parse_arg_func.exit, !prof !73

zend_parse_arg_func.exit:                         ; preds = %10
  %13 = load ptr, ptr %5, align 8, !tbaa !126
  %.not42 = icmp eq ptr %13, null
  %. = select i1 %.not42, i32 12, i32 0
  %.46 = select i1 %.not42, i32 9, i32 2
  br label %14

14:                                               ; preds = %9, %zend_parse_arg_func.exit
  %15 = phi ptr [ %13, %zend_parse_arg_func.exit ], [ null, %9 ]
  %.040.ph = phi i32 [ %., %zend_parse_arg_func.exit ], [ 0, %9 ]
  %.039.ph = phi ptr [ %11, %zend_parse_arg_func.exit ], [ null, %9 ]
  %.038.ph = phi i32 [ %.46, %zend_parse_arg_func.exit ], [ 1, %9 ]
  %.0.ph = phi i32 [ 1, %zend_parse_arg_func.exit ], [ 0, %9 ]
  call void @zend_wrong_parameter_error(i32 noundef %.038.ph, i32 noundef %.0.ph, ptr noundef %15, i32 noundef %.040.ph, ptr noundef %.039.ph) #22
  call void @llvm.lifetime.end.p0(i64 8, ptr nonnull %5) #22
  br label %35

.critedge:                                        ; preds = %10
  call void @zend_release_fcall_info_cache(ptr noundef nonnull %4) #22
  call void @llvm.lifetime.end.p0(i64 8, ptr nonnull %5) #22
  %16 = load ptr, ptr %6, align 8, !tbaa !56
  %17 = getelementptr inbounds nuw i8, ptr %16, i64 104
  %18 = load i32, ptr %17, align 8, !tbaa !74
  %.not44 = icmp eq i32 %18, 0
  br i1 %.not44, label %19, label %.critedge48, !prof !73

19:                                               ; preds = %.critedge
  %20 = getelementptr inbounds nuw i8, ptr %16, i64 192
  %21 = getelementptr inbounds nuw i8, ptr %16, i64 200
  %22 = load i8, ptr %21, align 8, !tbaa !56
  %.not = icmp eq i8 %22, 0
  br i1 %.not, label %26, label %.critedge48, !prof !73

.critedge48:                                      ; preds = %.critedge, %19
  %23 = load ptr, ptr @zend_ce_fiber_error, align 8, !tbaa !81
  call void (ptr, ptr, ...) @zend_throw_error(ptr noundef %23, ptr noundef nonnull @.str.5) #22
  %24 = load ptr, ptr getelementptr inbounds nuw (i8, ptr @executor_globals, i64 960), align 8, !tbaa !93
  %25 = icmp ne ptr %24, null
  call void @llvm.assume(i1 %25)
  br label %35

26:                                               ; preds = %19
  %27 = getelementptr inbounds nuw i8, ptr %16, i64 184
  call void @llvm.memcpy.p0.p0.i64(ptr noundef nonnull align 8 dereferenceable(64) %27, ptr noundef nonnull align 8 dereferenceable(64) %3, i64 64, i1 false), !tbaa.struct !128
  %28 = getelementptr inbounds nuw i8, ptr %16, i64 248
  call void @llvm.memcpy.p0.p0.i64(ptr noundef nonnull align 8 dereferenceable(40) %28, ptr noundef nonnull align 8 dereferenceable(40) %4, i64 40, i1 false), !tbaa.struct !132
  %29 = getelementptr inbounds nuw i8, ptr %16, i64 201
  %30 = load i8, ptr %29, align 1, !tbaa !56
  %.not45 = icmp eq i8 %30, 0
  br i1 %.not45, label %35, label %31

31:                                               ; preds = %26
  %32 = load ptr, ptr %20, align 8, !tbaa !56
  %33 = load i32, ptr %32, align 4, !tbaa !105
  %34 = add i32 %33, 1
  store i32 %34, ptr %32, align 4, !tbaa !105
  br label %35

35:                                               ; preds = %14, %.critedge48, %31, %26
  call void @llvm.lifetime.end.p0(i64 40, ptr nonnull %4) #22
  call void @llvm.lifetime.end.p0(i64 64, ptr nonnull %3) #22
  ret void
}